target datalayout = "e-m:e-p270:32:32-p271:32:32-p272:64:64-i64:64-i128:128-f80:128-n8:16:32:64-S128"
target triple = "x86_64-pc-linux-gnu"

%union.pthread_mutex_t = type { %struct.__pthread_mutex_s }
%struct.__pthread_mutex_s = type { i32, i32, i32, i32, i32, i16, i16, %struct.__pthread_internal_list }
%struct.__pthread_internal_list = type { ptr, ptr }
%struct._priv_exr_part_t = type { i32, i32, %struct.exr_attribute_list, ptr, ptr, ptr, ptr, ptr, ptr, ptr, ptr, ptr, ptr, ptr, ptr, ptr, ptr, %struct.exr_attr_box2i_t, %struct.exr_attr_box2i_t, i32, i32, i32, float, i32, i32, ptr, ptr, ptr, ptr, i64, i16, i16, i32, i64, i64 }
%struct.exr_attribute_list = type { i32, i32, ptr, ptr }
%struct.exr_attr_box2i_t = type { %struct.exr_attr_v2i_t, %struct.exr_attr_v2i_t }
%struct.exr_attr_v2i_t = type { i32, i32 }
%struct._priv_exr_context_t = type { i8, i8, i8, i8, i8, i8, i8, i8, %struct.exr_attr_string_t, %struct.exr_attr_string_t, ptr, ptr, ptr, ptr, ptr, ptr, ptr, ptr, i32, i32, i32, i32, i32, float, ptr, ptr, ptr, i64, ptr, ptr, i64, i32, i32, i32, i32, %struct._priv_exr_part_t, ptr, ptr, %struct.exr_attribute_list, %union.pthread_mutex_t, i8, i8, [2 x i8], i32 }
%struct.exr_attr_string_t = type { i32, i32, ptr }

; Function Attrs: nounwind uwtable
define internal void @internal_exr_destroy_part(ptr noundef %0, ptr noundef %1) #0 {
  %3 = alloca ptr, align 8
  %4 = alloca ptr, align 8
  %5 = alloca ptr, align 8
  %6 = alloca ptr, align 8
  %7 = alloca i64, align 8
  %8 = alloca i64, align 8
  store ptr %0, ptr %3, align 8, !tbaa !3
  store ptr %1, ptr %4, align 8, !tbaa !27
  call void @llvm.lifetime.start.p0(i64 8, ptr %5) #7
  %9 = load ptr, ptr %3, align 8, !tbaa !3
  %10 = getelementptr inbounds nuw %struct._priv_exr_context_t, ptr %9, i32 0, i32 17
  %11 = load ptr, ptr %10, align 8, !tbaa !31
  store ptr %11, ptr %5, align 8, !tbaa !34
  call void @llvm.lifetime.start.p0(i64 8, ptr %6) #7
  %12 = load ptr, ptr %3, align 8, !tbaa !3
  %13 = load ptr, ptr %4, align 8, !tbaa !27
  %14 = getelementptr inbounds nuw %struct._priv_exr_part_t, ptr %13, i32 0, i32 2
  %15 = call i32 @exr_attr_list_destroy(ptr noundef %12, ptr noundef %14)
  %16 = load ptr, ptr %4, align 8, !tbaa !27
  %17 = getelementptr inbounds nuw %struct._priv_exr_part_t, ptr %16, i32 0, i32 25
  %18 = load ptr, ptr %17, align 8, !tbaa !54
  %19 = icmp ne ptr %18, null
  br i1 %19, label %20, label %25

20:                                               ; preds = %2
  %21 = load ptr, ptr %5, align 8, !tbaa !34
  %22 = load ptr, ptr %4, align 8, !tbaa !27
  %23 = getelementptr inbounds nuw %struct._priv_exr_part_t, ptr %22, i32 0, i32 25
  %24 = load ptr, ptr %23, align 8, !tbaa !54
  call void %21(ptr noundef %24)
  br label %25

25:                                               ; preds = %20, %2
  %26 = load ptr, ptr %4, align 8, !tbaa !27
  %27 = getelementptr inbounds nuw %struct._priv_exr_part_t, ptr %26, i32 0, i32 34
  %28 = load atomic i64, ptr %27 seq_cst, align 8
  store i64 %28, ptr %7, align 8
  %29 = load i64, ptr %7, align 8, !tbaa !36
  %30 = inttoptr i64 %29 to ptr
  store ptr %30, ptr %6, align 8, !tbaa !55
  %31 = load ptr, ptr %4, align 8, !tbaa !27
  %32 = getelementptr inbounds nuw %struct._priv_exr_part_t, ptr %31, i32 0, i32 34
  store i64 0, ptr %8, align 8, !tbaa !36
  %33 = load i64, ptr %8, align 8
  store atomic i64 %33, ptr %32 seq_cst, align 8
  %34 = load ptr, ptr %6, align 8, !tbaa !55
  %35 = icmp ne ptr %34, null
  br i1 %35, label %36, label %43

36:                                               ; preds = %25
  %37 = load ptr, ptr %6, align 8, !tbaa !55
  %38 = ptrtoint ptr %37 to i64
  %39 = icmp ne i64 %38, -1
  br i1 %39, label %40, label %43

40:                                               ; preds = %36
  %41 = load ptr, ptr %5, align 8, !tbaa !34
  %42 = load ptr, ptr %6, align 8, !tbaa !55
  call void %41(ptr noundef %42)
  br label %43

43:                                               ; preds = %40, %36, %25
  call void @llvm.lifetime.end.p0(i64 8, ptr %6) #7
  call void @llvm.lifetime.end.p0(i64 8, ptr %5) #7
  ret void
}

; Function Attrs: nounwind uwtable
define hidden void @internal_exr_revert_add_part(ptr noundef %0, ptr noundef %1, ptr noundef %2) #0 {
  %4 = alloca ptr, align 8
  %5 = alloca ptr, align 8
  %6 = alloca ptr, align 8
  %7 = alloca i32, align 4
  %8 = alloca ptr, align 8
  %9 = alloca i32, align 4
  %10 = alloca i32, align 4
  store ptr %0, ptr %4, align 8, !tbaa !3
  store ptr %1, ptr %5, align 8, !tbaa !8
  store ptr %2, ptr %6, align 8, !tbaa !11
  call void @llvm.lifetime.start.p0(i64 4, ptr %7) #7
  %11 = load ptr, ptr %4, align 8, !tbaa !3
  %12 = getelementptr inbounds nuw %struct._priv_exr_context_t, ptr %11, i32 0, i32 34
  %13 = load i32, ptr %12, align 4, !tbaa !13
  %14 = sub nsw i32 %13, 1
  store i32 %14, ptr %7, align 4, !tbaa !26
  call void @llvm.lifetime.start.p0(i64 8, ptr %8) #7
  %15 = load ptr, ptr %5, align 8, !tbaa !8
  %16 = load ptr, ptr %15, align 8, !tbaa !27
  store ptr %16, ptr %8, align 8, !tbaa !27
  %17 = load ptr, ptr %5, align 8, !tbaa !8
  store ptr null, ptr %17, align 8, !tbaa !27
  %18 = load ptr, ptr %6, align 8, !tbaa !11
  store i32 -1, ptr %18, align 4, !tbaa !26
  %19 = load ptr, ptr %4, align 8, !tbaa !3
  %20 = load ptr, ptr %8, align 8, !tbaa !27
  call void @internal_exr_destroy_part(ptr noundef %19, ptr noundef %20)
  %21 = load i32, ptr %7, align 4, !tbaa !26
  %22 = icmp eq i32 %21, 0
  br i1 %22, label %23, label %30

23:                                               ; preds = %3
  %24 = load ptr, ptr %4, align 8, !tbaa !3
  %25 = getelementptr inbounds nuw %struct._priv_exr_context_t, ptr %24, i32 0, i32 34
  store i32 0, ptr %25, align 4, !tbaa !13
  %26 = load ptr, ptr %4, align 8, !tbaa !3
  %27 = getelementptr inbounds nuw %struct._priv_exr_context_t, ptr %26, i32 0, i32 36
  store ptr null, ptr %27, align 8, !tbaa !28
  %28 = load ptr, ptr %4, align 8, !tbaa !3
  %29 = getelementptr inbounds nuw %struct._priv_exr_context_t, ptr %28, i32 0, i32 37
  store ptr null, ptr %29, align 8, !tbaa !50
  br label %101

30:                                               ; preds = %3
  %31 = load i32, ptr %7, align 4, !tbaa !26
  %32 = icmp eq i32 %31, 1
  br i1 %32, label %33, label %61

33:                                               ; preds = %30
  %34 = load ptr, ptr %8, align 8, !tbaa !27
  %35 = load ptr, ptr %4, align 8, !tbaa !3
  %36 = getelementptr inbounds nuw %struct._priv_exr_context_t, ptr %35, i32 0, i32 35
  %37 = icmp eq ptr %34, %36
  br i1 %37, label %38, label %46

38:                                               ; preds = %33
  %39 = load ptr, ptr %4, align 8, !tbaa !3
  %40 = getelementptr inbounds nuw %struct._priv_exr_context_t, ptr %39, i32 0, i32 35
  %41 = load ptr, ptr %4, align 8, !tbaa !3
  %42 = getelementptr inbounds nuw %struct._priv_exr_context_t, ptr %41, i32 0, i32 37
  %43 = load ptr, ptr %42, align 8, !tbaa !50
  %44 = getelementptr inbounds ptr, ptr %43, i64 1
  %45 = load ptr, ptr %44, align 8, !tbaa !27
  call void @llvm.memcpy.p0.p0.i64(ptr align 8 %40, ptr align 8 %45, i64 264, i1 false), !tbaa.struct !32
  br label %46

46:                                               ; preds = %38, %33
  %47 = load ptr, ptr %4, align 8, !tbaa !3
  %48 = getelementptr inbounds nuw %struct._priv_exr_context_t, ptr %47, i32 0, i32 35
  %49 = load ptr, ptr %4, align 8, !tbaa !3
  %50 = getelementptr inbounds nuw %struct._priv_exr_context_t, ptr %49, i32 0, i32 36
  store ptr %48, ptr %50, align 8, !tbaa !28
  %51 = load ptr, ptr %4, align 8, !tbaa !3
  %52 = getelementptr inbounds nuw %struct._priv_exr_context_t, ptr %51, i32 0, i32 17
  %53 = load ptr, ptr %52, align 8, !tbaa !31
  %54 = load ptr, ptr %4, align 8, !tbaa !3
  %55 = getelementptr inbounds nuw %struct._priv_exr_context_t, ptr %54, i32 0, i32 37
  %56 = load ptr, ptr %55, align 8, !tbaa !50
  call void %53(ptr noundef %56)
  %57 = load ptr, ptr %4, align 8, !tbaa !3
  %58 = getelementptr inbounds nuw %struct._priv_exr_context_t, ptr %57, i32 0, i32 36
  %59 = load ptr, ptr %4, align 8, !tbaa !3
  %60 = getelementptr inbounds nuw %struct._priv_exr_context_t, ptr %59, i32 0, i32 37
  store ptr %58, ptr %60, align 8, !tbaa !50
  br label %100

61:                                               ; preds = %30
  call void @llvm.lifetime.start.p0(i64 4, ptr %9) #7
  store i32 0, ptr %9, align 4, !tbaa !26
  call void @llvm.lifetime.start.p0(i64 4, ptr %10) #7
  store i32 0, ptr %10, align 4, !tbaa !26
  br label %62

62:                                               ; preds = %96, %61
  %63 = load i32, ptr %10, align 4, !tbaa !26
  %64 = load ptr, ptr %4, align 8, !tbaa !3
  %65 = getelementptr inbounds nuw %struct._priv_exr_context_t, ptr %64, i32 0, i32 34
  %66 = load i32, ptr %65, align 4, !tbaa !13
  %67 = icmp slt i32 %63, %66
  br i1 %67, label %69, label %68

68:                                               ; preds = %62
  call void @llvm.lifetime.end.p0(i64 4, ptr %10) #7
  br label %99

69:                                               ; preds = %62
  %70 = load ptr, ptr %4, align 8, !tbaa !3
  %71 = getelementptr inbounds nuw %struct._priv_exr_context_t, ptr %70, i32 0, i32 37
  %72 = load ptr, ptr %71, align 8, !tbaa !50
  %73 = load i32, ptr %10, align 4, !tbaa !26
  %74 = sext i32 %73 to i64
  %75 = getelementptr inbounds ptr, ptr %72, i64 %74
  %76 = load ptr, ptr %75, align 8, !tbaa !27
  %77 = load ptr, ptr %8, align 8, !tbaa !27
  %78 = icmp eq ptr %76, %77
  br i1 %78, label %79, label %80

79:                                               ; preds = %69
  br label %96

80:                                               ; preds = %69
  %81 = load ptr, ptr %4, align 8, !tbaa !3
  %82 = getelementptr inbounds nuw %struct._priv_exr_context_t, ptr %81, i32 0, i32 37
  %83 = load ptr, ptr %82, align 8, !tbaa !50
  %84 = load i32, ptr %10, align 4, !tbaa !26
  %85 = sext i32 %84 to i64
  %86 = getelementptr inbounds ptr, ptr %83, i64 %85
  %87 = load ptr, ptr %86, align 8, !tbaa !27
  %88 = load ptr, ptr %4, align 8, !tbaa !3
  %89 = getelementptr inbounds nuw %struct._priv_exr_context_t, ptr %88, i32 0, i32 37
  %90 = load ptr, ptr %89, align 8, !tbaa !50
  %91 = load i32, ptr %9, align 4, !tbaa !26
  %92 = sext i32 %91 to i64
  %93 = getelementptr inbounds ptr, ptr %90, i64 %92
  store ptr %87, ptr %93, align 8, !tbaa !27
  %94 = load i32, ptr %9, align 4, !tbaa !26
  %95 = add nsw i32 %94, 1
  store i32 %95, ptr %9, align 4, !tbaa !26
  br label %96

96:                                               ; preds = %80, %79
  %97 = load i32, ptr %10, align 4, !tbaa !26
  %98 = add nsw i32 %97, 1
  store i32 %98, ptr %10, align 4, !tbaa !26
  br label %62, !llvm.loop !53

99:                                               ; preds = %68
  call void @llvm.lifetime.end.p0(i64 4, ptr %9) #7
  br label %100

100:                                              ; preds = %99, %46
  br label %101

101:                                              ; preds = %100, %23
  %102 = load i32, ptr %7, align 4, !tbaa !26
  %103 = load ptr, ptr %4, align 8, !tbaa !3
  %104 = getelementptr inbounds nuw %struct._priv_exr_context_t, ptr %103, i32 0, i32 34
  store i32 %102, ptr %104, align 4, !tbaa !13
  call void @llvm.lifetime.end.p0(i64 8, ptr %8) #7
  call void @llvm.lifetime.end.p0(i64 4, ptr %7) #7
  ret void
}